******************************************************************************
                  MSP430 Linker PC v4.1.5                      
******************************************************************************
>> Linked Sun Mar 02 22:22:33 2014

OUTPUT FILE NAME:   <FC003.out>
ENTRY POINT SYMBOL: "_c_int00"  address: 0000f644


MEMORY CONFIGURATION

         name            origin    length      used     unused   attr    fill
----------------------  --------  ---------  --------  --------  ----  --------
  SFR                   00000000   00000010  00000000  00000010  RWIX
  PERIPHERALS_8BIT      00000010   000000f0  00000000  000000f0  RWIX
  PERIPHERALS_16BIT     00000100   00000100  00000000  00000100  RWIX
  RAM                   00000200   00000100  00000075  0000008b  RWIX
  INFOD                 00001000   00000040  00000000  00000040  RWIX
  INFOC                 00001040   00000040  00000000  00000040  RWIX
  INFOB                 00001080   00000040  00000000  00000040  RWIX
  INFOA                 000010c0   00000040  00000000  00000040  RWIX
  FLASH                 0000f000   00000fe0  00000726  000008ba  RWIX
  INT00                 0000ffe0   00000002  00000000  00000002  RWIX
  INT01                 0000ffe2   00000002  00000000  00000002  RWIX
  INT02                 0000ffe4   00000002  00000000  00000002  RWIX
  INT03                 0000ffe6   00000002  00000000  00000002  RWIX
  INT04                 0000ffe8   00000002  00000000  00000002  RWIX
  INT05                 0000ffea   00000002  00000000  00000002  RWIX
  INT06                 0000ffec   00000002  00000000  00000002  RWIX
  INT07                 0000ffee   00000002  00000000  00000002  RWIX
  INT08                 0000fff0   00000002  00000002  00000000  RWIX
  INT09                 0000fff2   00000002  00000000  00000002  RWIX
  INT10                 0000fff4   00000002  00000000  00000002  RWIX
  INT11                 0000fff6   00000002  00000000  00000002  RWIX
  INT12                 0000fff8   00000002  00000000  00000002  RWIX
  INT13                 0000fffa   00000002  00000000  00000002  RWIX
  INT14                 0000fffc   00000002  00000000  00000002  RWIX
  RESET                 0000fffe   00000002  00000002  00000000  RWIX


SECTION ALLOCATION MAP

 output                                  attributes/
section   page    origin      length       input sections
--------  ----  ----------  ----------   ----------------
.init_array 
*          0    0000f000    00000000     UNINITIALIZED

.bss       0    00000200    00000021     UNINITIALIZED
                  00000200    00000021     main.obj (.bss)

.TI.noinit 
*          0    00000200    00000000     UNINITIALIZED

.data      0    00000222    00000004     
                  00000222    00000004     main.obj (.data)

.TI.persistent 
*          0    00000222    00000000     UNINITIALIZED

.stack     0    000002b0    00000050     UNINITIALIZED
                  000002b0    00000002     rts430_eabi.lib : boot.obj (.stack)
                  000002b2    0000004e     --HOLE--

.text      0    0000f000    000006b4     
                  0000f000    0000022a     main.obj (.text:TA0IV_ISR)
                  0000f22a    000001bc     main.obj (.text:main)
                  0000f3e6    00000068     textconv.obj (.text:LongToBCD)
                  0000f44e    0000005e     rts430_eabi.lib : copy_decompress_rle.obj (.text:__TI_decompress_rle_core)
                  0000f4ac    0000005e                     : autoinit.obj (.text:_auto_init)
                  0000f50a    00000058                     : div32u.obj (.text)
                  0000f562    0000004c                     : lsr16.obj (.text)
                  0000f5ae    00000044     main.obj (.text:set_countmode)
                  0000f5f2    0000002c     rts430_eabi.lib : lsl16.obj (.text)
                  0000f61e    00000026                     : mult32.obj (.text)
                  0000f644    0000001a                     : boot.obj (.text:_c_int00_noexit)
                  0000f65e    00000014                     : copy_zero_init.obj (.text:decompress:ZI:__TI_zero_init)
                  0000f672    00000012                     : copy_decompress_none.obj (.text:decompress:none:__TI_decompress_none)
                  0000f684    00000012                     : memcpy.obj (.text:memcpy)
                  0000f696    00000010                     : epilog.obj (.text)
                  0000f6a6    00000006                     : copy_decompress_rle.obj (.text:decompress:rle24:__TI_decompress_rle24)
                  0000f6ac    00000004                     : pre_init.obj (.text:_system_pre_init)
                  0000f6b0    00000004                     : exit.obj (.text:abort)

.const     0    0000f6b4    00000058     
                  0000f6b4    00000024     main.obj (.const:multiplication_limits)
                  0000f6d8    00000024     main.obj (.const:powerten)
                  0000f6fc    00000010     main.obj (.const:.string:segments)

.cinit     0    0000f70c    0000001a     
                  0000f70c    00000008     (.cinit..data.load) [load image]
                  0000f714    00000006     (__TI_handler_table)
                  0000f71a    00000004     (.cinit..bss.load) [load image, compression = zero_init]
                  0000f71e    00000008     (__TI_cinit_table)

TIMER0_A1 
*          0    0000fff0    00000002     
                  0000fff0    00000002     main.obj (.int08)

.reset     0    0000fffe    00000002     
                  0000fffe    00000002     rts430_eabi.lib : boot.obj (.reset)


LINKER GENERATED COPY TABLES

__TI_cinit_table @ 0000f71e records: 2, size/record: 4, table size: 8
	.data: load addr=0000f70c, load size=00000008 bytes, run addr=00000222, run size=00000004 bytes, compression=copy
	.bss: load addr=0000f71a, load size=00000004 bytes, run addr=00000200, run size=00000021 bytes, compression=zero_init


LINKER GENERATED HANDLER TABLE

__TI_handler_table @ 0000f714 records: 3, size/record: 2, table size: 6
	index: 0, handler: __TI_zero_init
	index: 1, handler: __TI_decompress_rle24
	index: 2, handler: __TI_decompress_none


GLOBAL SYMBOLS: SORTED ALPHABETICALLY BY Name 

address    name
--------   ----
00000057   BCSCTL1
00000058   BCSCTL2
00000053   BCSCTL3
0000f6b0   C$$EXIT
00000059   CACTL1
0000005a   CACTL2
000010fb   CALBC1_12MHZ
000010f9   CALBC1_16MHZ
000010ff   CALBC1_1MHZ
000010fd   CALBC1_8MHZ
000010fa   CALDCO_12MHZ
000010f8   CALDCO_16MHZ
000010fe   CALDCO_1MHZ
000010fc   CALDCO_8MHZ
0000005b   CAPD
00000056   DCOCTL
00000128   FCTL1
0000012a   FCTL2
0000012c   FCTL3
00000000   IE1
00000002   IFG1
0000f3e6   LongToBCD
00000022   P1DIR
00000025   P1IE
00000024   P1IES
00000023   P1IFG
00000020   P1IN
00000021   P1OUT
00000027   P1REN
00000026   P1SEL
00000041   P1SEL2
0000002a   P2DIR
0000002d   P2IE
0000002c   P2IES
0000002b   P2IFG
00000028   P2IN
00000029   P2OUT
0000002f   P2REN
0000002e   P2SEL
00000042   P2SEL2
00000172   TA0CCR0
00000174   TA0CCR1
00000176   TA0CCR2
00000162   TA0CCTL0
00000164   TA0CCTL1
00000166   TA0CCTL2
00000160   TA0CTL
0000012e   TA0IV
0000f000   TA0IV_ISR
00000170   TA0R
0000007a   USICCTL
0000007a   USICKCTL
0000007b   USICNT
00000078   USICTL
00000078   USICTL0
00000079   USICTL1
0000007c   USISR
0000007d   USISRH
0000007c   USISRL
00000120   WDTCTL
00000300   __STACK_END
00000050   __STACK_SIZE
0000f71e   __TI_CINIT_Base
0000f726   __TI_CINIT_Limit
0000f714   __TI_Handler_Table_Base
0000f71a   __TI_Handler_Table_Limit
UNDEFED    __TI_INITARRAY_Base
UNDEFED    __TI_INITARRAY_Limit
00000001   __TI_args_main
0000f672   __TI_decompress_none
0000f6a6   __TI_decompress_rle24
00000001   __TI_exit
0000f65e   __TI_zero_init
ffffffff   __binit__
ffffffff   __c_args__
0000f50a   __mspabi_divul
0000f6a2   __mspabi_func_epilog_1
0000f6a0   __mspabi_func_epilog_2
0000f69e   __mspabi_func_epilog_3
0000f69c   __mspabi_func_epilog_4
0000f69a   __mspabi_func_epilog_5
0000f698   __mspabi_func_epilog_6
0000f696   __mspabi_func_epilog_7
0000f61e   __mspabi_mpyl
0000f50a   __mspabi_remul
0000f5f2   __mspabi_slli
0000f61a   __mspabi_slli_1
0000f608   __mspabi_slli_10
0000f606   __mspabi_slli_11
0000f604   __mspabi_slli_12
0000f602   __mspabi_slli_13
0000f600   __mspabi_slli_14
0000f5fe   __mspabi_slli_15
0000f618   __mspabi_slli_2
0000f616   __mspabi_slli_3
0000f614   __mspabi_slli_4
0000f612   __mspabi_slli_5
0000f610   __mspabi_slli_6
0000f60e   __mspabi_slli_7
0000f60c   __mspabi_slli_8
0000f60a   __mspabi_slli_9
0000f562   __mspabi_srli
0000f5a8   __mspabi_srli_1
0000f584   __mspabi_srli_10
0000f580   __mspabi_srli_11
0000f57c   __mspabi_srli_12
0000f578   __mspabi_srli_13
0000f574   __mspabi_srli_14
0000f570   __mspabi_srli_15
0000f5a4   __mspabi_srli_2
0000f5a0   __mspabi_srli_3
0000f59c   __mspabi_srli_4
0000f598   __mspabi_srli_5
0000f594   __mspabi_srli_6
0000f590   __mspabi_srli_7
0000f58c   __mspabi_srli_8
0000f588   __mspabi_srli_9
0000f4ac   _auto_init
0000f644   _c_int00
0000f644   _c_int00_noexit
0000fffe   _reset_vector
000002b0   _stack
0000f6ac   _system_pre_init
0000f6b0   abort
00000212   bcd
ffffffff   binit
0000020c   count_high_part
00000222   count_mode
00000208   count_result
00000204   counter
00000223   disp_mode
0000021b   dp
00000224   gate_division
0000f22a   main
0000f684   memcpy
0000f6b4   multiplication_limits
0000f6d8   powerten
0000021a   pps1
00000220   pps1_count
00000200   prevccr
00000210   result_ready
0000f6fc   segments
0000f5ae   set_countmode
0000021f   switch_read
0000021e   switches
0000021c   tb_count


GLOBAL SYMBOLS: SORTED BY Symbol Address 

address    name
--------   ----
00000000   IE1
00000001   __TI_args_main
00000001   __TI_exit
00000002   IFG1
00000020   P1IN
00000021   P1OUT
00000022   P1DIR
00000023   P1IFG
00000024   P1IES
00000025   P1IE
00000026   P1SEL
00000027   P1REN
00000028   P2IN
00000029   P2OUT
0000002a   P2DIR
0000002b   P2IFG
0000002c   P2IES
0000002d   P2IE
0000002e   P2SEL
0000002f   P2REN
00000041   P1SEL2
00000042   P2SEL2
00000050   __STACK_SIZE
00000053   BCSCTL3
00000056   DCOCTL
00000057   BCSCTL1
00000058   BCSCTL2
00000059   CACTL1
0000005a   CACTL2
0000005b   CAPD
00000078   USICTL
00000078   USICTL0
00000079   USICTL1
0000007a   USICCTL
0000007a   USICKCTL
0000007b   USICNT
0000007c   USISR
0000007c   USISRL
0000007d   USISRH
00000120   WDTCTL
00000128   FCTL1
0000012a   FCTL2
0000012c   FCTL3
0000012e   TA0IV
00000160   TA0CTL
00000162   TA0CCTL0
00000164   TA0CCTL1
00000166   TA0CCTL2
00000170   TA0R
00000172   TA0CCR0
00000174   TA0CCR1
00000176   TA0CCR2
00000200   prevccr
00000204   counter
00000208   count_result
0000020c   count_high_part
00000210   result_ready
00000212   bcd
0000021a   pps1
0000021b   dp
0000021c   tb_count
0000021e   switches
0000021f   switch_read
00000220   pps1_count
00000222   count_mode
00000223   disp_mode
00000224   gate_division
000002b0   _stack
00000300   __STACK_END
000010f8   CALDCO_16MHZ
000010f9   CALBC1_16MHZ
000010fa   CALDCO_12MHZ
000010fb   CALBC1_12MHZ
000010fc   CALDCO_8MHZ
000010fd   CALBC1_8MHZ
000010fe   CALDCO_1MHZ
000010ff   CALBC1_1MHZ
0000f000   TA0IV_ISR
0000f22a   main
0000f3e6   LongToBCD
0000f4ac   _auto_init
0000f50a   __mspabi_divul
0000f50a   __mspabi_remul
0000f562   __mspabi_srli
0000f570   __mspabi_srli_15
0000f574   __mspabi_srli_14
0000f578   __mspabi_srli_13
0000f57c   __mspabi_srli_12
0000f580   __mspabi_srli_11
0000f584   __mspabi_srli_10
0000f588   __mspabi_srli_9
0000f58c   __mspabi_srli_8
0000f590   __mspabi_srli_7
0000f594   __mspabi_srli_6
0000f598   __mspabi_srli_5
0000f59c   __mspabi_srli_4
0000f5a0   __mspabi_srli_3
0000f5a4   __mspabi_srli_2
0000f5a8   __mspabi_srli_1
0000f5ae   set_countmode
0000f5f2   __mspabi_slli
0000f5fe   __mspabi_slli_15
0000f600   __mspabi_slli_14
0000f602   __mspabi_slli_13
0000f604   __mspabi_slli_12
0000f606   __mspabi_slli_11
0000f608   __mspabi_slli_10
0000f60a   __mspabi_slli_9
0000f60c   __mspabi_slli_8
0000f60e   __mspabi_slli_7
0000f610   __mspabi_slli_6
0000f612   __mspabi_slli_5
0000f614   __mspabi_slli_4
0000f616   __mspabi_slli_3
0000f618   __mspabi_slli_2
0000f61a   __mspabi_slli_1
0000f61e   __mspabi_mpyl
0000f644   _c_int00
0000f644   _c_int00_noexit
0000f65e   __TI_zero_init
0000f672   __TI_decompress_none
0000f684   memcpy
0000f696   __mspabi_func_epilog_7
0000f698   __mspabi_func_epilog_6
0000f69a   __mspabi_func_epilog_5
0000f69c   __mspabi_func_epilog_4
0000f69e   __mspabi_func_epilog_3
0000f6a0   __mspabi_func_epilog_2
0000f6a2   __mspabi_func_epilog_1
0000f6a6   __TI_decompress_rle24
0000f6ac   _system_pre_init
0000f6b0   C$$EXIT
0000f6b0   abort
0000f6b4   multiplication_limits
0000f6d8   powerten
0000f6fc   segments
0000f714   __TI_Handler_Table_Base
0000f71a   __TI_Handler_Table_Limit
0000f71e   __TI_CINIT_Base
0000f726   __TI_CINIT_Limit
0000fffe   _reset_vector
ffffffff   __binit__
ffffffff   __c_args__
ffffffff   binit
UNDEFED    __TI_INITARRAY_Base
UNDEFED    __TI_INITARRAY_Limit

[146 symbols]
